; Function Attrs: nounwind sspstrong uwtable
define internal void @set_icr(ptr noundef %s, i32 %index, i32 noundef %val) #0 {
entry:
  %arrayidx = getelementptr i8, ptr %s, i64 11568
  %0 = load i32, ptr %arrayidx, align 16
  %not = xor i32 %val, -1
  %and = and i32 %0, %not
  tail call fastcc void @set_interrupt_cause(ptr noundef %s, i32 noundef %and)
  ret void
}